target datalayout = "e-m:e-p270:32:32-p271:32:32-p272:64:64-i64:64-i128:128-f80:128-n8:16:32:64-S128"
target triple = "x86_64-pc-linux-gnu"

%struct.tMPI_Thread_key_t = type { %struct.tMPI_Atomic, ptr }
%struct.tMPI_Atomic = type { i32, [60 x i8] }
%struct.tmpi_thread = type { ptr, %struct.recv_envelope_list, ptr, %struct.free_envelope_list, %struct.tMPI_Atomic, %struct.tMPI_Event_t, %struct.req_list, ptr, ptr, ptr, ptr, i32, ptr }
%struct.recv_envelope_list = type { ptr, %struct.envelope }
%struct.envelope = type { i32, ptr, ptr, ptr, ptr, i64, ptr, i32, %struct.tMPI_Atomic, i32, ptr, ptr, i32, ptr, ptr, ptr, ptr }
%struct.free_envelope_list = type { ptr, ptr }
%struct.tMPI_Event_t = type { %struct.tMPI_Atomic, i32 }
%struct.req_list = type { ptr, ptr }
%struct.tmpi_req_ = type { i32, ptr, ptr, ptr, i32, i32, i64, i32, ptr, ptr }

@id_key = external global %struct.tMPI_Thread_key_t, align 8

; Function Attrs: mustprogress uwtable
define noundef i32 @_Z9tMPI_TestPP9tmpi_req_PiP12tmpi_status_(ptr noundef %0, ptr noundef %1, ptr noundef %2) #0 {
  %4 = alloca i32, align 4
  %5 = alloca ptr, align 8
  %6 = alloca ptr, align 8
  %7 = alloca ptr, align 8
  %8 = alloca i32, align 4
  %9 = alloca ptr, align 8
  %10 = alloca %struct.tMPI_Thread_key_t, align 8
  %11 = alloca ptr, align 8
  %12 = alloca ptr, align 8
  %13 = alloca i32, align 4
  store ptr %0, ptr %5, align 8, !tbaa !3
  store ptr %1, ptr %6, align 8, !tbaa !33
  store ptr %2, ptr %7, align 8, !tbaa !9
  call void @llvm.lifetime.start.p0(i64 4, ptr %8) #4
  store i32 0, ptr %8, align 4, !tbaa !11
  call void @llvm.lifetime.start.p0(i64 8, ptr %9) #4
  call void @llvm.memcpy.p0.p0.i64(ptr align 8 %10, ptr align 8 @id_key, i64 72, i1 false), !tbaa.struct !13
  %14 = call noundef ptr @_Z23tMPI_Thread_getspecific17tMPI_Thread_key_t(ptr noundef byval(%struct.tMPI_Thread_key_t) align 8 %10)
  store ptr %14, ptr %9, align 8, !tbaa !17
  call void @llvm.lifetime.start.p0(i64 8, ptr %11) #4
  %15 = load ptr, ptr %9, align 8, !tbaa !17
  %16 = getelementptr inbounds nuw %struct.tmpi_thread, ptr %15, i32 0, i32 6
  store ptr %16, ptr %11, align 8, !tbaa !19
  call void @llvm.lifetime.start.p0(i64 8, ptr %12) #4
  %17 = load ptr, ptr %5, align 8, !tbaa !3
  %18 = icmp ne ptr %17, null
  br i1 %18, label %19, label %23

19:                                               ; preds = %3
  %20 = load ptr, ptr %5, align 8, !tbaa !3
  %21 = load ptr, ptr %20, align 8, !tbaa !21
  %22 = icmp ne ptr %21, null
  br i1 %22, label %24, label %23

23:                                               ; preds = %19, %3
  store i32 0, ptr %4, align 4
  store i32 1, ptr %13, align 4
  br label %56

24:                                               ; preds = %19
  %25 = load ptr, ptr %5, align 8, !tbaa !3
  %26 = load ptr, ptr %25, align 8, !tbaa !21
  store ptr %26, ptr %12, align 8, !tbaa !21
  %27 = load ptr, ptr %12, align 8, !tbaa !21
  %28 = load ptr, ptr %12, align 8, !tbaa !21
  %29 = getelementptr inbounds nuw %struct.tmpi_req_, ptr %28, i32 0, i32 8
  store ptr %27, ptr %29, align 8, !tbaa !23
  %30 = load ptr, ptr %12, align 8, !tbaa !21
  %31 = load ptr, ptr %12, align 8, !tbaa !21
  %32 = getelementptr inbounds nuw %struct.tmpi_req_, ptr %31, i32 0, i32 9
  store ptr %30, ptr %32, align 8, !tbaa !28
  %33 = load ptr, ptr %9, align 8, !tbaa !17
  %34 = load ptr, ptr %12, align 8, !tbaa !21
  %35 = call noundef i32 @_Z16tMPI_Test_singleP11tmpi_threadP9tmpi_req_(ptr noundef %33, ptr noundef %34)
  %36 = icmp ne i32 %35, 0
  br i1 %36, label %37, label %39

37:                                               ; preds = %24
  %38 = load ptr, ptr %6, align 8, !tbaa !33
  store i32 1, ptr %38, align 4, !tbaa !11
  br label %39

39:                                               ; preds = %37, %24
  %40 = load ptr, ptr %12, align 8, !tbaa !21
  %41 = getelementptr inbounds nuw %struct.tmpi_req_, ptr %40, i32 0, i32 5
  %42 = load i32, ptr %41, align 4, !tbaa !32
  store i32 %42, ptr %8, align 4, !tbaa !11
  %43 = load ptr, ptr %12, align 8, !tbaa !21
  %44 = getelementptr inbounds nuw %struct.tmpi_req_, ptr %43, i32 0, i32 0
  %45 = load i32, ptr %44, align 8, !tbaa !35
  %46 = icmp ne i32 %45, 0
  br i1 %46, label %47, label %54

47:                                               ; preds = %39
  %48 = load ptr, ptr %12, align 8, !tbaa !21
  %49 = load ptr, ptr %7, align 8, !tbaa !9
  call void @_Z15tMPI_Set_statusP9tmpi_req_P12tmpi_status_(ptr noundef %48, ptr noundef %49)
  %50 = load ptr, ptr %11, align 8, !tbaa !19
  %51 = load ptr, ptr %5, align 8, !tbaa !3
  %52 = load ptr, ptr %51, align 8, !tbaa !21
  call void @_Z15tMPI_Return_reqP8req_listP9tmpi_req_(ptr noundef %50, ptr noundef %52)
  %53 = load ptr, ptr %5, align 8, !tbaa !3
  store ptr null, ptr %53, align 8, !tbaa !21
  br label %54

54:                                               ; preds = %47, %39
  %55 = load i32, ptr %8, align 4, !tbaa !11
  store i32 %55, ptr %4, align 4
  store i32 1, ptr %13, align 4
  br label %56

56:                                               ; preds = %54, %23
  call void @llvm.lifetime.end.p0(i64 8, ptr %12) #4
  call void @llvm.lifetime.end.p0(i64 8, ptr %11) #4
  call void @llvm.lifetime.end.p0(i64 8, ptr %9) #4
  call void @llvm.lifetime.end.p0(i64 4, ptr %8) #4
  %57 = load i32, ptr %4, align 4
  ret i32 %57
}