; Function Attrs: mustprogress uwtable
define noundef i32 @_Z9tMPI_TestPP9tmpi_req_PiP12tmpi_status_(ptr noundef %0, ptr noundef writeonly captures(none) %1, ptr noundef %2) local_unnamed_addr #0 {
  %4 = tail call noundef ptr @_Z23tMPI_Thread_getspecific17tMPI_Thread_key_t(ptr noundef nonnull byval(%struct.tMPI_Thread_key_t) align 8 @id_key)
  %5 = getelementptr inbounds nuw i8, ptr %4, i64 360
  %.not = icmp eq ptr %0, null
  br i1 %.not, label %19, label %6

6:                                                ; preds = %3
  %7 = load ptr, ptr %0, align 8, !tbaa !3
  %.not21 = icmp eq ptr %7, null
  br i1 %.not21, label %19, label %8

8:                                                ; preds = %6
  %9 = getelementptr inbounds nuw i8, ptr %7, i64 56
  store ptr %7, ptr %9, align 8, !tbaa !8
  %10 = getelementptr inbounds nuw i8, ptr %7, i64 64
  store ptr %7, ptr %10, align 8, !tbaa !15
  %11 = tail call noundef i32 @_Z16tMPI_Test_singleP11tmpi_threadP9tmpi_req_(ptr noundef %4, ptr noundef nonnull %7)
  %.not22 = icmp eq i32 %11, 0
  br i1 %.not22, label %13, label %12

12:                                               ; preds = %8
  store i32 1, ptr %1, align 4, !tbaa !20
  br label %13

13:                                               ; preds = %12, %8
  %14 = getelementptr inbounds nuw i8, ptr %7, i64 36
  %15 = load i32, ptr %14, align 4, !tbaa !19
  %16 = load i32, ptr %7, align 8, !tbaa !21
  %.not23 = icmp eq i32 %16, 0
  br i1 %.not23, label %19, label %17

17:                                               ; preds = %13
  tail call void @_Z15tMPI_Set_statusP9tmpi_req_P12tmpi_status_(ptr noundef nonnull %7, ptr noundef %2)
  %18 = load ptr, ptr %0, align 8, !tbaa !3
  tail call void @_Z15tMPI_Return_reqP8req_listP9tmpi_req_(ptr noundef nonnull %5, ptr noundef %18)
  store ptr null, ptr %0, align 8, !tbaa !3
  br label %19

19:                                               ; preds = %13, %17, %3, %6
  %.0 = phi i32 [ 0, %6 ], [ 0, %3 ], [ %15, %17 ], [ %15, %13 ]
  ret i32 %.0
}